target datalayout = "e-m:e-p270:32:32-p271:32:32-p272:64:64-i64:64-i128:128-f80:128-n8:16:32:64-S128"
target triple = "x86_64-pc-linux-gnu"

; Function Attrs: nounwind uwtable
define i32 @wc_EccPrivateKeyToDer(ptr noundef %0, ptr noundef %1, i32 noundef %2) #0 {
  %4 = alloca i32, align 4
  %5 = alloca ptr, align 8
  %6 = alloca ptr, align 8
  %7 = alloca i32, align 4
  %8 = alloca i32, align 4
  %9 = alloca i32, align 4
  store ptr %0, ptr %5, align 8, !tbaa !71
  store ptr %1, ptr %6, align 8, !tbaa !7
  store i32 %2, ptr %7, align 4, !tbaa !3
  call void @llvm.lifetime.start.p0(i64 4, ptr %8) #9
  %10 = load ptr, ptr %5, align 8, !tbaa !71
  %11 = load ptr, ptr %6, align 8, !tbaa !7
  %12 = call i32 @wc_BuildEccKeyDer(ptr noundef %10, ptr noundef %11, ptr noundef %7, i32 noundef 0, i32 noundef 1)
  store i32 %12, ptr %8, align 4, !tbaa !3
  %13 = load i32, ptr %8, align 4, !tbaa !3
  %14 = icmp eq i32 %13, -202
  br i1 %14, label %15, label %17

15:                                               ; preds = %3
  %16 = load i32, ptr %7, align 4, !tbaa !3
  store i32 %16, ptr %4, align 4
  store i32 1, ptr %9, align 4
  br label %19

17:                                               ; preds = %3
  %18 = load i32, ptr %8, align 4, !tbaa !3
  store i32 %18, ptr %4, align 4
  store i32 1, ptr %9, align 4
  br label %19

19:                                               ; preds = %17, %15
  call void @llvm.lifetime.end.p0(i64 4, ptr %8) #9
  %20 = load i32, ptr %4, align 4
  ret i32 %20
}