; Function Attrs: nounwind uwtable
define i32 @wc_EccPrivateKeyToDer(ptr noundef %0, ptr noundef %1, i32 noundef %2) local_unnamed_addr #2 {
  %4 = alloca i32, align 4
  store i32 %2, ptr %4, align 4, !tbaa !22
  %5 = call i32 @wc_BuildEccKeyDer(ptr noundef %0, ptr noundef %1, ptr noundef nonnull %4, i32 noundef 0, i32 noundef 1)
  %6 = icmp eq i32 %5, -202
  %7 = load i32, ptr %4, align 4
  %.0 = select i1 %6, i32 %7, i32 %5
  ret i32 %.0
}